target datalayout = "e-m:e-p270:32:32-p271:32:32-p272:64:64-i64:64-i128:128-f80:128-n8:16:32:64-S128"
target triple = "x86_64-pc-linux-gnu"

%struct.Node = type { i32 }
%struct.ForEachState = type { ptr, i32 }
%struct.List = type { i32, i32, i32, ptr, [0 x %union.ListCell] }
%union.ListCell = type { ptr }
%struct.FromExpr = type { i32, ptr, ptr }
%struct.JoinExpr = type { i32, i32, i8, ptr, ptr, ptr, ptr, ptr, ptr, i32 }

@.str.1 = private unnamed_addr constant [14 x i8] c"placeholder.c\00", align 1
@.str.2 = private unnamed_addr constant [27 x i8] c"unrecognized node type: %d\00", align 1
@__func__.find_placeholders_recurse = private unnamed_addr constant [26 x i8] c"find_placeholders_recurse\00", align 1

; Function Attrs: nounwind uwtable
define internal void @find_placeholders_in_expr(ptr noundef %0, ptr noundef %1) #0 {
  %3 = alloca ptr, align 8
  %4 = alloca ptr, align 8
  %5 = alloca ptr, align 8
  %6 = alloca ptr, align 8
  %7 = alloca %struct.ForEachState, align 8
  %8 = alloca i32, align 4
  %9 = alloca ptr, align 8
  store ptr %0, ptr %3, align 8
  store ptr %1, ptr %4, align 8
  call void @llvm.lifetime.start.p0(i64 8, ptr %5) #6
  call void @llvm.lifetime.start.p0(i64 8, ptr %6) #6
  %10 = load ptr, ptr %4, align 8
  %11 = call ptr @pull_var_clause(ptr noundef %10, i32 noundef 26)
  store ptr %11, ptr %5, align 8
  call void @llvm.lifetime.start.p0(i64 16, ptr %7) #6
  %12 = getelementptr inbounds nuw %struct.ForEachState, ptr %7, i32 0, i32 0
  %13 = load ptr, ptr %5, align 8
  store ptr %13, ptr %12, align 8
  %14 = getelementptr inbounds nuw %struct.ForEachState, ptr %7, i32 0, i32 1
  store i32 0, ptr %14, align 8
  %15 = getelementptr i8, ptr %7, i64 12
  call void @llvm.memset.p0.i64(ptr align 4 %15, i8 0, i64 4, i1 false)
  br label %16

16:                                               ; preds = %57, %2
  %17 = getelementptr inbounds nuw %struct.ForEachState, ptr %7, i32 0, i32 0
  %18 = load ptr, ptr %17, align 8
  %19 = icmp ne ptr %18, null
  br i1 %19, label %20, label %37

20:                                               ; preds = %16
  %21 = getelementptr inbounds nuw %struct.ForEachState, ptr %7, i32 0, i32 1
  %22 = load i32, ptr %21, align 8
  %23 = getelementptr inbounds nuw %struct.ForEachState, ptr %7, i32 0, i32 0
  %24 = load ptr, ptr %23, align 8
  %25 = getelementptr inbounds nuw %struct.List, ptr %24, i32 0, i32 1
  %26 = load i32, ptr %25, align 4
  %27 = icmp slt i32 %22, %26
  br i1 %27, label %28, label %37

28:                                               ; preds = %20
  %29 = getelementptr inbounds nuw %struct.ForEachState, ptr %7, i32 0, i32 0
  %30 = load ptr, ptr %29, align 8
  %31 = getelementptr inbounds nuw %struct.List, ptr %30, i32 0, i32 3
  %32 = load ptr, ptr %31, align 8
  %33 = getelementptr inbounds nuw %struct.ForEachState, ptr %7, i32 0, i32 1
  %34 = load i32, ptr %33, align 8
  %35 = sext i32 %34 to i64
  %36 = getelementptr inbounds %union.ListCell, ptr %32, i64 %35
  store ptr %36, ptr %6, align 8
  br label %38

37:                                               ; preds = %20, %16
  store ptr null, ptr %6, align 8
  br label %38

38:                                               ; preds = %37, %28
  %39 = phi i32 [ 1, %28 ], [ 0, %37 ]
  %40 = icmp ne i32 %39, 0
  br i1 %40, label %42, label %41

41:                                               ; preds = %38
  store i32 2, ptr %8, align 4
  call void @llvm.lifetime.end.p0(i64 16, ptr %7) #6
  br label %61

42:                                               ; preds = %38
  call void @llvm.lifetime.start.p0(i64 8, ptr %9) #6
  %43 = load ptr, ptr %6, align 8
  %44 = load ptr, ptr %43, align 8
  store ptr %44, ptr %9, align 8
  %45 = load ptr, ptr %9, align 8
  %46 = getelementptr inbounds nuw %struct.Node, ptr %45, i32 0, i32 0
  %47 = load i32, ptr %46, align 4
  %48 = icmp eq i32 %47, 318
  br i1 %48, label %50, label %49

49:                                               ; preds = %42
  store i32 4, ptr %8, align 4
  br label %54

50:                                               ; preds = %42
  %51 = load ptr, ptr %3, align 8
  %52 = load ptr, ptr %9, align 8
  %53 = call ptr @find_placeholder_info(ptr noundef %51, ptr noundef %52)
  store i32 0, ptr %8, align 4
  br label %54

54:                                               ; preds = %50, %49
  call void @llvm.lifetime.end.p0(i64 8, ptr %9) #6
  %55 = load i32, ptr %8, align 4
  switch i32 %55, label %63 [
    i32 0, label %56
    i32 4, label %57
  ]

56:                                               ; preds = %54
  br label %57

57:                                               ; preds = %56, %54
  %58 = getelementptr inbounds nuw %struct.ForEachState, ptr %7, i32 0, i32 1
  %59 = load i32, ptr %58, align 8
  %60 = add i32 %59, 1
  store i32 %60, ptr %58, align 8
  br label %16, !llvm.loop !8

61:                                               ; preds = %41
  %62 = load ptr, ptr %5, align 8
  call void @list_free(ptr noundef %62)
  call void @llvm.lifetime.end.p0(i64 8, ptr %6) #6
  call void @llvm.lifetime.end.p0(i64 8, ptr %5) #6
  ret void

63:                                               ; preds = %54
  unreachable
}

; Function Attrs: nounwind uwtable
define internal void @find_placeholders_recurse(ptr noundef %0, ptr noundef %1) #0 {
  %3 = alloca ptr, align 8
  %4 = alloca ptr, align 8
  %5 = alloca ptr, align 8
  %6 = alloca ptr, align 8
  %7 = alloca %struct.ForEachState, align 8
  %8 = alloca ptr, align 8
  store ptr %0, ptr %3, align 8
  store ptr %1, ptr %4, align 8
  %9 = load ptr, ptr %4, align 8
  %10 = icmp eq ptr %9, null
  br i1 %10, label %11, label %12

11:                                               ; preds = %2
  br label %104

12:                                               ; preds = %2
  %13 = load ptr, ptr %4, align 8
  %14 = getelementptr inbounds nuw %struct.Node, ptr %13, i32 0, i32 0
  %15 = load i32, ptr %14, align 4
  %16 = icmp eq i32 %15, 63
  br i1 %16, label %17, label %18

17:                                               ; preds = %12
  br label %104

18:                                               ; preds = %12
  %19 = load ptr, ptr %4, align 8
  %20 = getelementptr inbounds nuw %struct.Node, ptr %19, i32 0, i32 0
  %21 = load i32, ptr %20, align 4
  %22 = icmp eq i32 %21, 65
  br i1 %22, label %23, label %70

23:                                               ; preds = %18
  call void @llvm.lifetime.start.p0(i64 8, ptr %5) #6
  %24 = load ptr, ptr %4, align 8
  store ptr %24, ptr %5, align 8
  call void @llvm.lifetime.start.p0(i64 8, ptr %6) #6
  call void @llvm.lifetime.start.p0(i64 16, ptr %7) #6
  %25 = getelementptr inbounds nuw %struct.ForEachState, ptr %7, i32 0, i32 0
  %26 = load ptr, ptr %5, align 8
  %27 = getelementptr inbounds nuw %struct.FromExpr, ptr %26, i32 0, i32 1
  %28 = load ptr, ptr %27, align 8
  store ptr %28, ptr %25, align 8
  %29 = getelementptr inbounds nuw %struct.ForEachState, ptr %7, i32 0, i32 1
  store i32 0, ptr %29, align 8
  %30 = getelementptr i8, ptr %7, i64 12
  call void @llvm.memset.p0.i64(ptr align 4 %30, i8 0, i64 4, i1 false)
  br label %31

31:                                               ; preds = %61, %23
  %32 = getelementptr inbounds nuw %struct.ForEachState, ptr %7, i32 0, i32 0
  %33 = load ptr, ptr %32, align 8
  %34 = icmp ne ptr %33, null
  br i1 %34, label %35, label %52

35:                                               ; preds = %31
  %36 = getelementptr inbounds nuw %struct.ForEachState, ptr %7, i32 0, i32 1
  %37 = load i32, ptr %36, align 8
  %38 = getelementptr inbounds nuw %struct.ForEachState, ptr %7, i32 0, i32 0
  %39 = load ptr, ptr %38, align 8
  %40 = getelementptr inbounds nuw %struct.List, ptr %39, i32 0, i32 1
  %41 = load i32, ptr %40, align 4
  %42 = icmp slt i32 %37, %41
  br i1 %42, label %43, label %52

43:                                               ; preds = %35
  %44 = getelementptr inbounds nuw %struct.ForEachState, ptr %7, i32 0, i32 0
  %45 = load ptr, ptr %44, align 8
  %46 = getelementptr inbounds nuw %struct.List, ptr %45, i32 0, i32 3
  %47 = load ptr, ptr %46, align 8
  %48 = getelementptr inbounds nuw %struct.ForEachState, ptr %7, i32 0, i32 1
  %49 = load i32, ptr %48, align 8
  %50 = sext i32 %49 to i64
  %51 = getelementptr inbounds %union.ListCell, ptr %47, i64 %50
  store ptr %51, ptr %6, align 8
  br label %53

52:                                               ; preds = %35, %31
  store ptr null, ptr %6, align 8
  br label %53

53:                                               ; preds = %52, %43
  %54 = phi i32 [ 1, %43 ], [ 0, %52 ]
  %55 = icmp ne i32 %54, 0
  br i1 %55, label %57, label %56

56:                                               ; preds = %53
  call void @llvm.lifetime.end.p0(i64 16, ptr %7) #6
  br label %65

57:                                               ; preds = %53
  %58 = load ptr, ptr %3, align 8
  %59 = load ptr, ptr %6, align 8
  %60 = load ptr, ptr %59, align 8
  call void @find_placeholders_recurse(ptr noundef %58, ptr noundef %60)
  br label %61

61:                                               ; preds = %57
  %62 = getelementptr inbounds nuw %struct.ForEachState, ptr %7, i32 0, i32 1
  %63 = load i32, ptr %62, align 8
  %64 = add i32 %63, 1
  store i32 %64, ptr %62, align 8
  br label %31, !llvm.loop !9

65:                                               ; preds = %56
  %66 = load ptr, ptr %3, align 8
  %67 = load ptr, ptr %5, align 8
  %68 = getelementptr inbounds nuw %struct.FromExpr, ptr %67, i32 0, i32 2
  %69 = load ptr, ptr %68, align 8
  call void @find_placeholders_in_expr(ptr noundef %66, ptr noundef %69)
  call void @llvm.lifetime.end.p0(i64 8, ptr %6) #6
  call void @llvm.lifetime.end.p0(i64 8, ptr %5) #6
  br label %103

70:                                               ; preds = %18
  %71 = load ptr, ptr %4, align 8
  %72 = getelementptr inbounds nuw %struct.Node, ptr %71, i32 0, i32 0
  %73 = load i32, ptr %72, align 4
  %74 = icmp eq i32 %73, 64
  br i1 %74, label %75, label %89

75:                                               ; preds = %70
  call void @llvm.lifetime.start.p0(i64 8, ptr %8) #6
  %76 = load ptr, ptr %4, align 8
  store ptr %76, ptr %8, align 8
  %77 = load ptr, ptr %3, align 8
  %78 = load ptr, ptr %8, align 8
  %79 = getelementptr inbounds nuw %struct.JoinExpr, ptr %78, i32 0, i32 3
  %80 = load ptr, ptr %79, align 8
  call void @find_placeholders_recurse(ptr noundef %77, ptr noundef %80)
  %81 = load ptr, ptr %3, align 8
  %82 = load ptr, ptr %8, align 8
  %83 = getelementptr inbounds nuw %struct.JoinExpr, ptr %82, i32 0, i32 4
  %84 = load ptr, ptr %83, align 8
  call void @find_placeholders_recurse(ptr noundef %81, ptr noundef %84)
  %85 = load ptr, ptr %3, align 8
  %86 = load ptr, ptr %8, align 8
  %87 = getelementptr inbounds nuw %struct.JoinExpr, ptr %86, i32 0, i32 7
  %88 = load ptr, ptr %87, align 8
  call void @find_placeholders_in_expr(ptr noundef %85, ptr noundef %88)
  call void @llvm.lifetime.end.p0(i64 8, ptr %8) #6
  br label %102

89:                                               ; preds = %70
  br label %90

90:                                               ; preds = %89
  br i1 true, label %91, label %93

91:                                               ; preds = %90
  %92 = call zeroext i1 @errstart_cold(i32 noundef 21, ptr noundef null) #7
  br i1 %92, label %95, label %100

93:                                               ; preds = %90
  %94 = call zeroext i1 @errstart(i32 noundef 21, ptr noundef null)
  br i1 %94, label %95, label %100

95:                                               ; preds = %93, %91
  %96 = load ptr, ptr %4, align 8
  %97 = getelementptr inbounds nuw %struct.Node, ptr %96, i32 0, i32 0
  %98 = load i32, ptr %97, align 4
  %99 = call i32 (ptr, ...) @errmsg_internal(ptr noundef @.str.2, i32 noundef %98)
  call void @errfinish(ptr noundef @.str.1, i32 noundef 248, ptr noundef @__func__.find_placeholders_recurse)
  br label %100

100:                                              ; preds = %95, %93, %91
  unreachable

101:                                              ; No predecessors!
  br label %102

102:                                              ; preds = %101, %75
  br label %103

103:                                              ; preds = %102, %65
  br label %104

104:                                              ; preds = %11, %103, %17
  ret void
}