; Function Attrs: nounwind uwtable
define internal fastcc void @find_placeholders_recurse(ptr noundef %0, ptr noundef readonly captures(address_is_null) %1) unnamed_addr #0 {
  %3 = icmp eq ptr %1, null
  br i1 %3, label %66, label %4

4:                                                ; preds = %2
  %5 = load i32, ptr %1, align 4
  switch i32 %5, label %62 [
    i32 63, label %66
    i32 65, label %6
    i32 64, label %38
  ]

6:                                                ; preds = %4
  %7 = getelementptr inbounds nuw i8, ptr %1, i64 8
  %8 = load ptr, ptr %7, align 8
  %9 = getelementptr inbounds nuw i8, ptr %8, i64 4
  %.not = icmp eq ptr %8, null
  br i1 %.not, label %._crit_edge, label %.lr.ph

.lr.ph:                                           ; preds = %6
  %10 = getelementptr inbounds nuw i8, ptr %8, i64 16
  %11 = load i32, ptr %9, align 4
  %12 = icmp sgt i32 %11, 0
  br i1 %12, label %.lr.ph38, label %._crit_edge

._crit_edge:                                      ; preds = %.lr.ph38, %.lr.ph, %6
  %13 = getelementptr inbounds nuw i8, ptr %1, i64 16
  %14 = load ptr, ptr %13, align 8
  %15 = tail call ptr @pull_var_clause(ptr noundef %14, i32 noundef 26) #5
  %16 = getelementptr inbounds nuw i8, ptr %15, i64 4
  %.not.i = icmp eq ptr %15, null
  br i1 %.not.i, label %.sink.split, label %.lr.ph.i

.lr.ph.i:                                         ; preds = %._crit_edge
  %17 = getelementptr inbounds nuw i8, ptr %15, i64 16
  %18 = load i32, ptr %16, align 4
  %19 = icmp sgt i32 %18, 0
  br i1 %19, label %.lr.ph18.i, label %.sink.split

.lr.ph18.i:                                       ; preds = %.lr.ph.i, %28
  %20 = phi i32 [ %29, %28 ], [ %18, %.lr.ph.i ]
  %indvars.iv.i = phi i64 [ %indvars.iv.next.i, %28 ], [ 0, %.lr.ph.i ]
  %21 = load ptr, ptr %17, align 8
  %22 = getelementptr inbounds nuw %union.ListCell, ptr %21, i64 %indvars.iv.i
  %23 = load ptr, ptr %22, align 8
  %24 = load i32, ptr %23, align 4
  %25 = icmp eq i32 %24, 318
  br i1 %25, label %26, label %28

26:                                               ; preds = %.lr.ph18.i
  %27 = tail call ptr @find_placeholder_info(ptr noundef %0, ptr noundef nonnull %23)
  %.pre.i = load i32, ptr %16, align 4
  br label %28

28:                                               ; preds = %26, %.lr.ph18.i
  %29 = phi i32 [ %20, %.lr.ph18.i ], [ %.pre.i, %26 ]
  %indvars.iv.next.i = add nuw nsw i64 %indvars.iv.i, 1
  %30 = sext i32 %29 to i64
  %31 = icmp slt i64 %indvars.iv.next.i, %30
  br i1 %31, label %.lr.ph18.i, label %.sink.split

.lr.ph38:                                         ; preds = %.lr.ph, %.lr.ph38
  %indvars.iv = phi i64 [ %indvars.iv.next, %.lr.ph38 ], [ 0, %.lr.ph ]
  %32 = load ptr, ptr %10, align 8
  %33 = getelementptr inbounds nuw %union.ListCell, ptr %32, i64 %indvars.iv
  %34 = load ptr, ptr %33, align 8
  tail call fastcc void @find_placeholders_recurse(ptr noundef %0, ptr noundef %34)
  %indvars.iv.next = add nuw nsw i64 %indvars.iv, 1
  %35 = load i32, ptr %9, align 4
  %36 = sext i32 %35 to i64
  %37 = icmp slt i64 %indvars.iv.next, %36
  br i1 %37, label %.lr.ph38, label %._crit_edge

38:                                               ; preds = %4
  %39 = getelementptr inbounds nuw i8, ptr %1, i64 16
  %40 = load ptr, ptr %39, align 8
  tail call fastcc void @find_placeholders_recurse(ptr noundef %0, ptr noundef %40)
  %41 = getelementptr inbounds nuw i8, ptr %1, i64 24
  %42 = load ptr, ptr %41, align 8
  tail call fastcc void @find_placeholders_recurse(ptr noundef %0, ptr noundef %42)
  %43 = getelementptr inbounds nuw i8, ptr %1, i64 48
  %44 = load ptr, ptr %43, align 8
  %45 = tail call ptr @pull_var_clause(ptr noundef %44, i32 noundef 26) #5
  %46 = getelementptr inbounds nuw i8, ptr %45, i64 4
  %.not.i26 = icmp eq ptr %45, null
  br i1 %.not.i26, label %.sink.split, label %.lr.ph.i27

.lr.ph.i27:                                       ; preds = %38
  %47 = getelementptr inbounds nuw i8, ptr %45, i64 16
  %48 = load i32, ptr %46, align 4
  %49 = icmp sgt i32 %48, 0
  br i1 %49, label %.lr.ph18.i28, label %.sink.split

.lr.ph18.i28:                                     ; preds = %.lr.ph.i27, %58
  %50 = phi i32 [ %59, %58 ], [ %48, %.lr.ph.i27 ]
  %indvars.iv.i29 = phi i64 [ %indvars.iv.next.i30, %58 ], [ 0, %.lr.ph.i27 ]
  %51 = load ptr, ptr %47, align 8
  %52 = getelementptr inbounds nuw %union.ListCell, ptr %51, i64 %indvars.iv.i29
  %53 = load ptr, ptr %52, align 8
  %54 = load i32, ptr %53, align 4
  %55 = icmp eq i32 %54, 318
  br i1 %55, label %56, label %58

56:                                               ; preds = %.lr.ph18.i28
  %57 = tail call ptr @find_placeholder_info(ptr noundef %0, ptr noundef nonnull %53)
  %.pre.i31 = load i32, ptr %46, align 4
  br label %58

58:                                               ; preds = %56, %.lr.ph18.i28
  %59 = phi i32 [ %50, %.lr.ph18.i28 ], [ %.pre.i31, %56 ]
  %indvars.iv.next.i30 = add nuw nsw i64 %indvars.iv.i29, 1
  %60 = sext i32 %59 to i64
  %61 = icmp slt i64 %indvars.iv.next.i30, %60
  br i1 %61, label %.lr.ph18.i28, label %.sink.split

62:                                               ; preds = %4
  %63 = tail call zeroext i1 @errstart_cold(i32 noundef 21, ptr noundef null) #6
  tail call void @llvm.assume(i1 %63)
  %64 = load i32, ptr %1, align 4
  %65 = tail call i32 (ptr, ...) @errmsg_internal(ptr noundef nonnull @.str.2, i32 noundef %64) #5
  tail call void @errfinish(ptr noundef nonnull @.str.1, i32 noundef 248, ptr noundef nonnull @__func__.find_placeholders_recurse) #5
  unreachable

.sink.split:                                      ; preds = %58, %28, %.lr.ph.i27, %38, %.lr.ph.i, %._crit_edge
  %.sink = phi ptr [ %15, %._crit_edge ], [ %15, %.lr.ph.i ], [ %45, %38 ], [ %45, %.lr.ph.i27 ], [ %15, %28 ], [ %45, %58 ]
  tail call void @list_free(ptr noundef %.sink) #5
  br label %66

66:                                               ; preds = %.sink.split, %4, %2
  ret void
}